target datalayout = "e-m:e-p270:32:32-p271:32:32-p272:64:64-i64:64-i128:128-f80:128-n8:16:32:64-S128"
target triple = "x86_64-pc-linux-gnu"

%union.pthread_mutex_t = type { %struct.__pthread_mutex_s }
%struct.__pthread_mutex_s = type { i32, i32, i32, i32, i32, i16, i16, %struct.__pthread_internal_list }
%struct.__pthread_internal_list = type { ptr, ptr }
%struct.wolfSSL_RefWithMutex = type { %union.pthread_mutex_t, i32 }
%struct.WOLFSSL_CERT_MANAGER = type { [11 x ptr], ptr, ptr, ptr, ptr, ptr, ptr, ptr, ptr, ptr, ptr, ptr, ptr, %union.pthread_mutex_t, i8, i16, i16, %struct.wolfSSL_RefWithMutex }
%struct.WOLFSSL_BUFFER_INFO = type { ptr, i32 }
%struct.DecodedCert = type { ptr, i32, i32, i32, i32, i32, i32, i32, i32, i32, i32, ptr, ptr, ptr, ptr, ptr, [20 x i8], [20 x i8], ptr, ptr, i32, i8, [256 x i8], [256 x i8], i32, ptr, i32, i32, ptr, [32 x i8], i32, ptr, i32, i32, ptr, i32, ptr, i32, ptr, i32, [20 x i8], i32, [20 x i8], i32, i8, i8, i8, i16, i8, i32, ptr, i32, ptr, i32, ptr, i32, ptr, i32, i8, ptr, %struct.SignatureCtx, i32, i32, i32 }
%struct.SignatureCtx = type { ptr, ptr, ptr, ptr, i32, %union.anon, i32, i32, i32, i32, i32, i32, i32, i32 }
%union.anon = type { ptr }
%struct.ProcPeerCertArgs = type { ptr, ptr, ptr, i32, i32, i32, i32, i32, i32, i8, i8 }
%struct.DerBuffer = type { ptr, ptr, i32, i32, i32 }

; Function Attrs: nounwind uwtable
define i32 @CM_VerifyBuffer_ex(ptr noundef %0, ptr noundef %1, i64 noundef %2, i32 noundef %3, i32 noundef %4) #0 {
  %6 = alloca ptr, align 8
  %7 = alloca ptr, align 8
  %8 = alloca i64, align 8
  %9 = alloca i32, align 4
  %10 = alloca i32, align 4
  %11 = alloca i32, align 4
  %12 = alloca i32, align 4
  %13 = alloca ptr, align 8
  %14 = alloca [1 x %struct.DecodedCert], align 16
  %15 = alloca [1 x %struct.ProcPeerCertArgs], align 16
  %16 = alloca %struct.WOLFSSL_BUFFER_INFO, align 8
  store ptr %0, ptr %6, align 8, !tbaa !9
  store ptr %1, ptr %7, align 8, !tbaa !21
  store i64 %2, ptr %8, align 8, !tbaa !22
  store i32 %3, ptr %9, align 4, !tbaa !7
  store i32 %4, ptr %10, align 4, !tbaa !7
  call void @llvm.lifetime.start.p0(i64 4, ptr %11) #9
  store i32 0, ptr %11, align 4, !tbaa !7
  call void @llvm.lifetime.start.p0(i64 4, ptr %12) #9
  store i32 0, ptr %12, align 4, !tbaa !7
  call void @llvm.lifetime.start.p0(i64 8, ptr %13) #9
  store ptr null, ptr %13, align 8, !tbaa !37
  call void @llvm.lifetime.start.p0(i64 1024, ptr %14) #9
  br label %17

17:                                               ; preds = %5
  br label %18

18:                                               ; preds = %17
  br label %19

19:                                               ; preds = %18
  %20 = getelementptr inbounds [1 x %struct.DecodedCert], ptr %14, i64 0, i64 0
  call void @llvm.memset.p0.i64(ptr align 16 %20, i8 0, i64 1024, i1 false)
  %21 = load i32, ptr %9, align 4, !tbaa !7
  %22 = icmp eq i32 %21, 1
  br i1 %22, label %23, label %42

23:                                               ; preds = %19
  %24 = load ptr, ptr %7, align 8, !tbaa !21
  %25 = load i64, ptr %8, align 8, !tbaa !22
  %26 = load ptr, ptr %6, align 8, !tbaa !9
  %27 = getelementptr inbounds nuw %struct.WOLFSSL_CERT_MANAGER, ptr %26, i32 0, i32 1
  %28 = load ptr, ptr %27, align 8, !tbaa !19
  %29 = call i32 @PemToDer(ptr noundef %24, i64 noundef %25, i32 noundef 0, ptr noundef %13, ptr noundef %28, ptr noundef null, ptr noundef null)
  store i32 %29, ptr %11, align 4, !tbaa !7
  %30 = load i32, ptr %11, align 4, !tbaa !7
  %31 = icmp ne i32 %30, 0
  br i1 %31, label %32, label %33

32:                                               ; preds = %23
  store i32 1, ptr %12, align 4, !tbaa !7
  br label %41

33:                                               ; preds = %23
  %34 = load ptr, ptr %13, align 8, !tbaa !37
  %35 = getelementptr inbounds nuw %struct.DerBuffer, ptr %34, i32 0, i32 0
  %36 = load ptr, ptr %35, align 8, !tbaa !38
  store ptr %36, ptr %7, align 8, !tbaa !21
  %37 = load ptr, ptr %13, align 8, !tbaa !37
  %38 = getelementptr inbounds nuw %struct.DerBuffer, ptr %37, i32 0, i32 2
  %39 = load i32, ptr %38, align 8, !tbaa !40
  %40 = zext i32 %39 to i64
  store i64 %40, ptr %8, align 8, !tbaa !22
  br label %41

41:                                               ; preds = %33, %32
  br label %42

42:                                               ; preds = %41, %19
  %43 = load i32, ptr %11, align 4, !tbaa !7
  %44 = icmp eq i32 %43, 0
  br i1 %44, label %45, label %56

45:                                               ; preds = %42
  %46 = getelementptr inbounds [1 x %struct.DecodedCert], ptr %14, i64 0, i64 0
  %47 = load ptr, ptr %7, align 8, !tbaa !21
  %48 = load i64, ptr %8, align 8, !tbaa !22
  %49 = trunc i64 %48 to i32
  %50 = load ptr, ptr %6, align 8, !tbaa !9
  %51 = getelementptr inbounds nuw %struct.WOLFSSL_CERT_MANAGER, ptr %50, i32 0, i32 1
  %52 = load ptr, ptr %51, align 8, !tbaa !19
  call void @InitDecodedCert(ptr noundef %46, ptr noundef %47, i32 noundef %49, ptr noundef %52)
  %53 = getelementptr inbounds [1 x %struct.DecodedCert], ptr %14, i64 0, i64 0
  %54 = load ptr, ptr %6, align 8, !tbaa !9
  %55 = call i32 @ParseCertRelative(ptr noundef %53, i32 noundef 0, i32 noundef 1, ptr noundef %54, ptr noundef null)
  store i32 %55, ptr %11, align 4, !tbaa !7
  br label %56

56:                                               ; preds = %45, %42
  %57 = load i32, ptr %12, align 4, !tbaa !7
  %58 = icmp ne i32 %57, 0
  br i1 %58, label %92, label %59

59:                                               ; preds = %56
  %60 = load ptr, ptr %6, align 8, !tbaa !9
  %61 = getelementptr inbounds nuw %struct.WOLFSSL_CERT_MANAGER, ptr %60, i32 0, i32 6
  %62 = load ptr, ptr %61, align 8, !tbaa !36
  %63 = icmp ne ptr %62, null
  br i1 %63, label %64, label %92

64:                                               ; preds = %59
  call void @llvm.lifetime.start.p0(i64 56, ptr %15) #9
  call void @llvm.lifetime.start.p0(i64 16, ptr %16) #9
  %65 = getelementptr inbounds [1 x %struct.ProcPeerCertArgs], ptr %15, i64 0, i64 0
  call void @llvm.memset.p0.i64(ptr align 16 %65, i8 0, i64 56, i1 false)
  %66 = load ptr, ptr %7, align 8, !tbaa !21
  %67 = getelementptr inbounds nuw %struct.WOLFSSL_BUFFER_INFO, ptr %16, i32 0, i32 0
  store ptr %66, ptr %67, align 8, !tbaa !41
  %68 = load i64, ptr %8, align 8, !tbaa !22
  %69 = trunc i64 %68 to i32
  %70 = getelementptr inbounds nuw %struct.WOLFSSL_BUFFER_INFO, ptr %16, i32 0, i32 1
  store i32 %69, ptr %70, align 8, !tbaa !42
  %71 = getelementptr inbounds [1 x %struct.ProcPeerCertArgs], ptr %15, i64 0, i64 0
  %72 = getelementptr inbounds nuw %struct.ProcPeerCertArgs, ptr %71, i32 0, i32 5
  store i32 1, ptr %72, align 16, !tbaa !43
  %73 = getelementptr inbounds [1 x %struct.ProcPeerCertArgs], ptr %15, i64 0, i64 0
  %74 = getelementptr inbounds nuw %struct.ProcPeerCertArgs, ptr %73, i32 0, i32 0
  store ptr %16, ptr %74, align 16, !tbaa !47
  %75 = getelementptr inbounds [1 x %struct.DecodedCert], ptr %14, i64 0, i64 0
  %76 = getelementptr inbounds [1 x %struct.ProcPeerCertArgs], ptr %15, i64 0, i64 0
  %77 = getelementptr inbounds nuw %struct.ProcPeerCertArgs, ptr %76, i32 0, i32 2
  store ptr %75, ptr %77, align 16, !tbaa !48
  %78 = getelementptr inbounds [1 x %struct.ProcPeerCertArgs], ptr %15, i64 0, i64 0
  %79 = getelementptr inbounds nuw %struct.ProcPeerCertArgs, ptr %78, i32 0, i32 10
  %80 = load i8, ptr %79, align 1
  %81 = and i8 %80, -5
  %82 = or i8 %81, 4
  store i8 %82, ptr %79, align 1
  %83 = load i32, ptr %10, align 4, !tbaa !7
  %84 = icmp ne i32 %83, 0
  br i1 %84, label %85, label %87

85:                                               ; preds = %64
  %86 = load i32, ptr %10, align 4, !tbaa !7
  store i32 %86, ptr %11, align 4, !tbaa !7
  br label %87

87:                                               ; preds = %85, %64
  %88 = load ptr, ptr %6, align 8, !tbaa !9
  %89 = load i32, ptr %11, align 4, !tbaa !7
  %90 = getelementptr inbounds [1 x %struct.ProcPeerCertArgs], ptr %15, i64 0, i64 0
  %91 = call i32 @DoVerifyCallback(ptr noundef %88, ptr noundef null, i32 noundef %89, ptr noundef %90)
  store i32 %91, ptr %11, align 4, !tbaa !7
  call void @llvm.lifetime.end.p0(i64 16, ptr %16) #9
  call void @llvm.lifetime.end.p0(i64 56, ptr %15) #9
  br label %92

92:                                               ; preds = %87, %59, %56
  %93 = getelementptr inbounds [1 x %struct.DecodedCert], ptr %14, i64 0, i64 0
  call void @FreeDecodedCert(ptr noundef %93)
  call void @FreeDer(ptr noundef %13)
  %94 = load i32, ptr %11, align 4, !tbaa !7
  %95 = icmp eq i32 %94, 0
  br i1 %95, label %96, label %97

96:                                               ; preds = %92
  br label %99

97:                                               ; preds = %92
  %98 = load i32, ptr %11, align 4, !tbaa !7
  br label %99

99:                                               ; preds = %97, %96
  %100 = phi i32 [ 1, %96 ], [ %98, %97 ]
  call void @llvm.lifetime.end.p0(i64 1024, ptr %14) #9
  call void @llvm.lifetime.end.p0(i64 8, ptr %13) #9
  call void @llvm.lifetime.end.p0(i64 4, ptr %12) #9
  call void @llvm.lifetime.end.p0(i64 4, ptr %11) #9
  ret i32 %100
}