; Function Attrs: nounwind uwtable
define range(i32 1, 0) i32 @CM_VerifyBuffer_ex(ptr noundef %0, ptr noundef %1, i64 noundef %2, i32 noundef %3, i32 noundef %4) local_unnamed_addr #0 {
  %6 = alloca ptr, align 8
  %7 = alloca [1 x %struct.DecodedCert], align 16
  %8 = alloca [1 x %struct.ProcPeerCertArgs], align 16
  %9 = alloca %struct.WOLFSSL_BUFFER_INFO, align 8
  call void @llvm.lifetime.start.p0(i64 8, ptr nonnull %6) #22
  store ptr null, ptr %6, align 8, !tbaa !31
  call void @llvm.lifetime.start.p0(i64 1024, ptr nonnull %7) #22
  call void @llvm.memset.p0.i64(ptr noundef nonnull align 16 dereferenceable(1024) %7, i8 0, i64 1024, i1 false)
  %10 = icmp eq i32 %3, 1
  br i1 %10, label %11, label %21

11:                                               ; preds = %5
  %12 = getelementptr inbounds nuw i8, ptr %0, i64 88
  %13 = load ptr, ptr %12, align 8, !tbaa !16
  %14 = call i32 @PemToDer(ptr noundef %1, i64 noundef %2, i32 noundef 0, ptr noundef nonnull %6, ptr noundef %13, ptr noundef null, ptr noundef null) #22
  %.not = icmp eq i32 %14, 0
  br i1 %.not, label %15, label %34

15:                                               ; preds = %11
  %16 = load ptr, ptr %6, align 8, !tbaa !31
  %17 = load ptr, ptr %16, align 8, !tbaa !32
  %18 = getelementptr inbounds nuw i8, ptr %16, i64 16
  %19 = load i32, ptr %18, align 8, !tbaa !34
  %20 = zext i32 %19 to i64
  br label %21

21:                                               ; preds = %5, %15
  %.021.ph = phi i64 [ %2, %5 ], [ %20, %15 ]
  %.020.ph = phi ptr [ %1, %5 ], [ %17, %15 ]
  %22 = trunc i64 %.021.ph to i32
  %23 = getelementptr inbounds nuw i8, ptr %0, i64 88
  %24 = load ptr, ptr %23, align 8, !tbaa !16
  call void @InitDecodedCert(ptr noundef nonnull %7, ptr noundef %.020.ph, i32 noundef %22, ptr noundef %24) #22
  %25 = call i32 @ParseCertRelative(ptr noundef nonnull %7, i32 noundef 0, i32 noundef 1, ptr noundef %0, ptr noundef null) #22
  %26 = getelementptr inbounds nuw i8, ptr %0, i64 128
  %27 = load ptr, ptr %26, align 8, !tbaa !30
  %.not26 = icmp eq ptr %27, null
  br i1 %.not26, label %34, label %28

28:                                               ; preds = %21
  call void @llvm.lifetime.start.p0(i64 56, ptr nonnull %8) #22
  call void @llvm.lifetime.start.p0(i64 16, ptr nonnull %9) #22
  call void @llvm.memset.p0.i64(ptr noundef nonnull align 16 dereferenceable(56) %8, i8 0, i64 56, i1 false)
  store ptr %.020.ph, ptr %9, align 8, !tbaa !35
  %29 = getelementptr inbounds nuw i8, ptr %9, i64 8
  store i32 %22, ptr %29, align 8, !tbaa !36
  %30 = getelementptr inbounds nuw i8, ptr %8, i64 32
  store i32 1, ptr %30, align 16, !tbaa !37
  store ptr %9, ptr %8, align 16, !tbaa !41
  %31 = getelementptr inbounds nuw i8, ptr %8, i64 16
  store ptr %7, ptr %31, align 16, !tbaa !42
  %32 = getelementptr inbounds nuw i8, ptr %8, i64 49
  store i8 4, ptr %32, align 1
  %.not27 = icmp eq i32 %4, 0
  %spec.select = select i1 %.not27, i32 %25, i32 %4
  %33 = call i32 @DoVerifyCallback(ptr noundef nonnull %0, ptr noundef null, i32 noundef %spec.select, ptr noundef nonnull %8) #22
  call void @llvm.lifetime.end.p0(i64 16, ptr nonnull %9) #22
  call void @llvm.lifetime.end.p0(i64 56, ptr nonnull %8) #22
  br label %34

34:                                               ; preds = %11, %28, %21
  %.2 = phi i32 [ %33, %28 ], [ %25, %21 ], [ %14, %11 ]
  call void @FreeDecodedCert(ptr noundef nonnull %7) #22
  call void @FreeDer(ptr noundef nonnull %6) #22
  %35 = call i32 @llvm.umax.i32(i32 %.2, i32 1)
  call void @llvm.lifetime.end.p0(i64 1024, ptr nonnull %7) #22
  call void @llvm.lifetime.end.p0(i64 8, ptr nonnull %6) #22
  ret i32 %35
}